; Function Attrs: mustprogress uwtable
define void @_Z11replace_strB5cxx11PKcS0_S0_(ptr noalias sret(%"class.std::__cxx11::basic_string") align 8 %agg.result, ptr noundef %s, ptr noundef %needle, ptr noundef %replacement) local_unnamed_addr #3 personality ptr @__gxx_personality_v0 {
entry:
  %ref.tmp = alloca %"class.std::allocator", align 1
  call void @_ZNSaIcEC1Ev(ptr noundef nonnull align 1 dereferenceable(1) %ref.tmp) #36
  invoke void @_ZNSt7__cxx1112basic_stringIcSt11char_traitsIcESaIcEEC1EPKcRKS3_(ptr noundef nonnull align 8 dereferenceable(32) %agg.result, ptr noundef %s, ptr noundef nonnull align 1 dereferenceable(1) %ref.tmp)
          to label %invoke.cont unwind label %lpad

invoke.cont:                                      ; preds = %entry
  call void @_ZNSaIcED1Ev(ptr noundef nonnull align 1 dereferenceable(1) %ref.tmp) #36
  %call = call noundef i64 @_ZNKSt7__cxx1112basic_stringIcSt11char_traitsIcESaIcEE4findEPKcm(ptr noundef nonnull align 8 dereferenceable(32) %agg.result, ptr noundef %needle, i64 noundef 0) #36
  %cmp.not = icmp eq i64 %call, -1
  br i1 %cmp.not, label %nrvo.skipdtor, label %if.then

if.then:                                          ; preds = %invoke.cont
  %call1 = call i64 @strlen(ptr noundef nonnull dereferenceable(1) %needle) #43
  %call4 = invoke noundef nonnull align 8 dereferenceable(32) ptr @_ZNSt7__cxx1112basic_stringIcSt11char_traitsIcESaIcEE7replaceEmmPKc(ptr noundef nonnull align 8 dereferenceable(32) %agg.result, i64 noundef %call, i64 noundef %call1, ptr noundef %replacement)
          to label %nrvo.skipdtor unwind label %lpad2

lpad:                                             ; preds = %entry
  %0 = landingpad { ptr, i32 }
          cleanup
  call void @_ZNSaIcED1Ev(ptr noundef nonnull align 1 dereferenceable(1) %ref.tmp) #36
  br label %eh.resume

lpad2:                                            ; preds = %if.then
  %1 = landingpad { ptr, i32 }
          cleanup
  call void @_ZNSt7__cxx1112basic_stringIcSt11char_traitsIcESaIcEED1Ev(ptr noundef nonnull align 8 dereferenceable(32) %agg.result) #36
  br label %eh.resume

nrvo.skipdtor:                                    ; preds = %invoke.cont, %if.then
  ret void

eh.resume:                                        ; preds = %lpad2, %lpad
  %.pn = phi { ptr, i32 } [ %1, %lpad2 ], [ %0, %lpad ]
  resume { ptr, i32 } %.pn
}